target datalayout = "e-m:e-p270:32:32-p271:32:32-p272:64:64-i64:64-i128:128-f80:128-n8:16:32:64-S128"
target triple = "x86_64-pc-linux-gnu"

%class.CodeHeap = type { %class.VirtualSpace, %class.VirtualSpace, i64, i64, i64, i32, i64, ptr, ptr, i64, i32, i64, ptr, i32, i32, i32, i32, i32, i32 }
%class.VirtualSpace = type { ptr, ptr, ptr, ptr, i8, i8, ptr, ptr, ptr, ptr, ptr, ptr, i64, i64, i64 }
%class.HeapBlock = type { %union.anon }
%union.anon = type { [1 x i64] }

@g_assert_poison = external global ptr, align 8
@.str = private unnamed_addr constant [34 x i8] c"src/hotspot/share/memory/heap.cpp\00", align 1
@.str.8 = private unnamed_addr constant [84 x i8] c"guarantee((char*) b >= _memory.low_boundary() && (char*) b < _memory.high()) failed\00", align 1
@.str.9 = private unnamed_addr constant [108 x i8] c"The block to be deallocated 0x%016lx is not within the heap starting with 0x%016lx and ending with 0x%016lx\00", align 1

; Function Attrs: mustprogress nounwind uwtable
define linkonce_odr hidden noundef i64 @_Z3p2iPVKv(ptr noundef %0) #1 comdat {
  %2 = alloca ptr, align 8
  store ptr %0, ptr %2, align 8
  %3 = load ptr, ptr %2, align 8
  %4 = ptrtoint ptr %3 to i64
  ret i64 %4
}

; Function Attrs: mustprogress nounwind uwtable
define linkonce_odr hidden noundef ptr @_ZNK12VirtualSpace4highEv(ptr noundef nonnull align 8 dereferenceable(112) %0) #1 comdat align 2 {
  %2 = alloca ptr, align 8
  store ptr %0, ptr %2, align 8
  %3 = load ptr, ptr %2, align 8
  %4 = getelementptr inbounds %class.VirtualSpace, ptr %3, i32 0, i32 3
  %5 = load ptr, ptr %4, align 8
  ret ptr %5
}

; Function Attrs: mustprogress nounwind uwtable
define linkonce_odr hidden noundef ptr @_ZNK12VirtualSpace12low_boundaryEv(ptr noundef nonnull align 8 dereferenceable(112) %0) #1 comdat align 2 {
  %2 = alloca ptr, align 8
  store ptr %0, ptr %2, align 8
  %3 = load ptr, ptr %2, align 8
  %4 = getelementptr inbounds %class.VirtualSpace, ptr %3, i32 0, i32 0
  %5 = load ptr, ptr %4, align 8
  ret ptr %5
}

; Function Attrs: mustprogress nounwind uwtable
define hidden void @_ZN8CodeHeap10deallocateEPv(ptr noundef nonnull align 8 dereferenceable(336) %0, ptr noundef %1) #1 align 2 {
  %3 = alloca ptr, align 8
  %4 = alloca ptr, align 8
  %5 = alloca ptr, align 8
  store ptr %0, ptr %3, align 8
  store ptr %1, ptr %4, align 8
  %6 = load ptr, ptr %3, align 8
  %7 = load ptr, ptr %4, align 8
  %8 = getelementptr inbounds %class.HeapBlock, ptr %7, i64 -1
  store ptr %8, ptr %5, align 8
  br label %9

9:                                                ; preds = %2
  %10 = load ptr, ptr %5, align 8
  %11 = getelementptr inbounds %class.CodeHeap, ptr %6, i32 0, i32 0
  %12 = call noundef ptr @_ZNK12VirtualSpace12low_boundaryEv(ptr noundef nonnull align 8 dereferenceable(112) %11)
  %13 = icmp uge ptr %10, %12
  br i1 %13, label %14, label %19

14:                                               ; preds = %9
  %15 = load ptr, ptr %5, align 8
  %16 = getelementptr inbounds %class.CodeHeap, ptr %6, i32 0, i32 0
  %17 = call noundef ptr @_ZNK12VirtualSpace4highEv(ptr noundef nonnull align 8 dereferenceable(112) %16)
  %18 = icmp ult ptr %15, %17
  br i1 %18, label %29, label %19

19:                                               ; preds = %14, %9
  %20 = load ptr, ptr @g_assert_poison, align 8
  store i8 88, ptr %20, align 1
  %21 = load ptr, ptr %5, align 8
  %22 = call noundef i64 @_Z3p2iPVKv(ptr noundef %21)
  %23 = getelementptr inbounds %class.CodeHeap, ptr %6, i32 0, i32 0
  %24 = call noundef ptr @_ZNK12VirtualSpace12low_boundaryEv(ptr noundef nonnull align 8 dereferenceable(112) %23)
  %25 = call noundef i64 @_Z3p2iPVKv(ptr noundef %24)
  %26 = getelementptr inbounds %class.CodeHeap, ptr %6, i32 0, i32 0
  %27 = call noundef ptr @_ZNK12VirtualSpace4highEv(ptr noundef nonnull align 8 dereferenceable(112) %26)
  %28 = call noundef i64 @_Z3p2iPVKv(ptr noundef %27)
  call void (ptr, i32, ptr, ptr, ...) @_Z15report_vm_errorPKciS0_S0_z(ptr noundef @.str, i32 noundef 372, ptr noundef @.str.8, ptr noundef @.str.9, i64 noundef %22, i64 noundef %25, i64 noundef %28) #9
  unreachable

29:                                               ; preds = %14
  br label %30

30:                                               ; preds = %29
  %31 = load ptr, ptr %5, align 8
  call void @_ZN8CodeHeap15add_to_freelistEP9HeapBlock(ptr noundef nonnull align 8 dereferenceable(336) %6, ptr noundef %31)
  ret void
}