; Function Attrs: mustprogress nounwind uwtable
define hidden void @_ZN8CodeHeap10deallocateEPv(ptr nocapture noundef nonnull align 8 dereferenceable(336) %0, ptr noundef %1) local_unnamed_addr #0 align 2 {
  %3 = getelementptr inbounds i8, ptr %1, i64 -8
  %4 = load ptr, ptr %0, align 8
  %.not = icmp uge ptr %3, %4
  %5 = getelementptr inbounds i8, ptr %0, i64 24
  %6 = load ptr, ptr %5, align 8
  %7 = icmp ult ptr %3, %6
  %or.cond = select i1 %.not, i1 %7, i1 false
  br i1 %or.cond, label %15, label %8

8:                                                ; preds = %2
  %9 = load ptr, ptr @g_assert_poison, align 8
  store i8 88, ptr %9, align 1
  %10 = ptrtoint ptr %3 to i64
  %11 = load ptr, ptr %0, align 8
  %12 = ptrtoint ptr %11 to i64
  %13 = load ptr, ptr %5, align 8
  %14 = ptrtoint ptr %13 to i64
  tail call void (ptr, i32, ptr, ptr, ...) @_Z15report_vm_errorPKciS0_S0_z(ptr noundef nonnull @.str, i32 noundef 372, ptr noundef nonnull @.str.8, ptr noundef nonnull @.str.9, i64 noundef %10, i64 noundef %12, i64 noundef %14) #17
  unreachable

15:                                               ; preds = %2
  tail call void @_ZN8CodeHeap15add_to_freelistEP9HeapBlock(ptr noundef nonnull align 8 dereferenceable(336) %0, ptr noundef nonnull %3)
  ret void
}